; Function Attrs: mustprogress nofree norecurse nosync nounwind willreturn memory(readwrite, inaccessiblemem: none) uwtable
define hidden void @_ZN5zxing6qrcode19FinderPatternFinder8getImageEv(ptr dead_on_unwind noalias nocapture writable writeonly sret(%"class.zxing::Ref") align 8 %0, ptr nocapture noundef nonnull readonly align 8 dereferenceable(88) %1) local_unnamed_addr #11 align 2 {
  %3 = getelementptr inbounds i8, ptr %1, i64 40
  %4 = load ptr, ptr %3, align 8
  %.not.i.i = icmp eq ptr %4, null
  br i1 %.not.i.i, label %_ZN5zxing3RefINS_9BitMatrixEEC2ERKS2_.exit, label %5

5:                                                ; preds = %2
  %6 = getelementptr inbounds i8, ptr %4, i64 8
  %7 = load i32, ptr %6, align 8
  %8 = add i32 %7, 1
  store i32 %8, ptr %6, align 8
  br label %_ZN5zxing3RefINS_9BitMatrixEEC2ERKS2_.exit

_ZN5zxing3RefINS_9BitMatrixEEC2ERKS2_.exit:       ; preds = %5, %2
  store ptr %4, ptr %0, align 8
  ret void
}